target datalayout = "e-m:e-p270:32:32-p271:32:32-p272:64:64-i64:64-i128:128-f80:128-n8:16:32:64-S128"
target triple = "x86_64-pc-linux-gnu"

%struct.avifDecoder = type { i32, i32, i32, i32, i32, i32, i32, i32, i32, i32, i32, ptr, i32, i32, i32, %struct.avifImageTiming, i64, double, i64, i32, i32, %struct.avifIOStats, %struct.avifDiagnostics, ptr, ptr, i32 }
%struct.avifImageTiming = type { i64, double, i64, double, i64 }
%struct.avifIOStats = type { i64, i64 }
%struct.avifDiagnostics = type { [256 x i8] }

; Function Attrs: nounwind uwtable
define internal void @avifDecoderCleanup(ptr noundef %0) #0 {
  %2 = alloca ptr, align 8
  store ptr %0, ptr %2, align 8
  %3 = load ptr, ptr %2, align 8
  %4 = getelementptr inbounds nuw %struct.avifDecoder, ptr %3, i32 0, i32 24
  %5 = load ptr, ptr %4, align 8
  %6 = icmp ne ptr %5, null
  br i1 %6, label %7, label %13

7:                                                ; preds = %1
  %8 = load ptr, ptr %2, align 8
  %9 = getelementptr inbounds nuw %struct.avifDecoder, ptr %8, i32 0, i32 24
  %10 = load ptr, ptr %9, align 8
  call void @avifDecoderDataDestroy(ptr noundef %10)
  %11 = load ptr, ptr %2, align 8
  %12 = getelementptr inbounds nuw %struct.avifDecoder, ptr %11, i32 0, i32 24
  store ptr null, ptr %12, align 8
  br label %13

13:                                               ; preds = %7, %1
  %14 = load ptr, ptr %2, align 8
  %15 = getelementptr inbounds nuw %struct.avifDecoder, ptr %14, i32 0, i32 11
  %16 = load ptr, ptr %15, align 8
  %17 = icmp ne ptr %16, null
  br i1 %17, label %18, label %24

18:                                               ; preds = %13
  %19 = load ptr, ptr %2, align 8
  %20 = getelementptr inbounds nuw %struct.avifDecoder, ptr %19, i32 0, i32 11
  %21 = load ptr, ptr %20, align 8
  call void @avifImageDestroy(ptr noundef %21)
  %22 = load ptr, ptr %2, align 8
  %23 = getelementptr inbounds nuw %struct.avifDecoder, ptr %22, i32 0, i32 11
  store ptr null, ptr %23, align 8
  br label %24

24:                                               ; preds = %18, %13
  %25 = load ptr, ptr %2, align 8
  %26 = getelementptr inbounds nuw %struct.avifDecoder, ptr %25, i32 0, i32 22
  call void @avifDiagnosticsClearError(ptr noundef %26)
  ret void
}

; Function Attrs: nounwind uwtable
define hidden void @avifDecoderDestroy(ptr noundef %0) #0 {
  %2 = alloca ptr, align 8
  store ptr %0, ptr %2, align 8
  %3 = load ptr, ptr %2, align 8
  call void @avifDecoderCleanup(ptr noundef %3)
  %4 = load ptr, ptr %2, align 8
  %5 = getelementptr inbounds nuw %struct.avifDecoder, ptr %4, i32 0, i32 23
  %6 = load ptr, ptr %5, align 8
  call void @avifIODestroy(ptr noundef %6)
  %7 = load ptr, ptr %2, align 8
  call void @avifFree(ptr noundef %7)
  ret void
}