; Function Attrs: nounwind uwtable
define hidden void @avifDecoderDestroy(ptr noundef %0) local_unnamed_addr #0 {
  %2 = getelementptr inbounds nuw i8, ptr %0, i64 424
  %3 = load ptr, ptr %2, align 8
  %.not.i = icmp eq ptr %3, null
  br i1 %.not.i, label %5, label %4

4:                                                ; preds = %1
  tail call fastcc void @avifDecoderDataDestroy(ptr noundef %3)
  store ptr null, ptr %2, align 8
  br label %5

5:                                                ; preds = %4, %1
  %6 = getelementptr inbounds nuw i8, ptr %0, i64 48
  %7 = load ptr, ptr %6, align 8
  %.not8.i = icmp eq ptr %7, null
  br i1 %.not8.i, label %avifDecoderCleanup.exit, label %8

8:                                                ; preds = %5
  tail call void @avifImageDestroy(ptr noundef nonnull %7) #13
  store ptr null, ptr %6, align 8
  br label %avifDecoderCleanup.exit

avifDecoderCleanup.exit:                          ; preds = %5, %8
  %9 = getelementptr inbounds nuw i8, ptr %0, i64 160
  tail call void @avifDiagnosticsClearError(ptr noundef nonnull %9) #13
  %10 = getelementptr inbounds nuw i8, ptr %0, i64 416
  %11 = load ptr, ptr %10, align 8
  tail call void @avifIODestroy(ptr noundef %11) #13
  tail call void @avifFree(ptr noundef nonnull %0) #13
  ret void
}